; Function Attrs: mustprogress nounwind uwtable
define hidden void @_ZN29ShenandoahBarrierSetAssembler20gen_pre_barrier_stubEP13LIR_AssemblerP24ShenandoahPreBarrierStub(ptr nocapture noundef nonnull readnone align 8 dereferenceable(8) %0, ptr noundef %1, ptr noundef %2) local_unnamed_addr #0 align 2 {
  %4 = alloca %class.LIR_Opr, align 8
  %5 = alloca %class.LIR_Opr, align 8
  %6 = alloca %class.AddressLiteral, align 8
  %7 = alloca %class.RuntimeAddress, align 8
  %8 = load ptr, ptr @_ZN10BarrierSet12_barrier_setE, align 8
  %9 = getelementptr inbounds i8, ptr %8, i64 32
  %10 = load ptr, ptr %9, align 8
  %11 = load ptr, ptr %1, align 8
  %12 = getelementptr inbounds i8, ptr %2, i64 8
  tail call void @_ZN17AbstractAssembler4bindER5Label(ptr noundef nonnull align 8 dereferenceable(24) %11, ptr noundef nonnull align 8 dereferenceable(33) %12) #6
  %13 = getelementptr inbounds i8, ptr %2, i64 104
  %.sroa.0.0.copyload.i = load i64, ptr %13, align 8
  store i64 %.sroa.0.0.copyload.i, ptr %4, align 8
  %14 = call i32 @_ZNK7LIR_Opr11as_registerEv(ptr noundef nonnull align 8 dereferenceable(8) %4) #6
  %15 = getelementptr inbounds i8, ptr %2, i64 88
  %16 = load i8, ptr %15, align 8
  %17 = trunc i8 %16 to i1
  br i1 %17, label %18, label %26

18:                                               ; preds = %3
  %19 = getelementptr inbounds i8, ptr %2, i64 96
  %.sroa.0.0.copyload.i23 = load i64, ptr %19, align 8
  %.sroa.0.0.copyload.i24 = load i64, ptr %13, align 8
  %20 = getelementptr inbounds i8, ptr %2, i64 112
  %21 = load i32, ptr %20, align 8
  %22 = load ptr, ptr %2, align 8
  %23 = getelementptr inbounds i8, ptr %22, i64 8
  %24 = load ptr, ptr %23, align 8
  %25 = call noundef ptr %24(ptr noundef nonnull align 8 dereferenceable(128) %2) #6
  call void @_ZN13LIR_Assembler7mem2regE7LIR_OprS0_9BasicType13LIR_PatchCodeP12CodeEmitInfob(ptr noundef nonnull align 8 dereferenceable(96) %1, i64 %.sroa.0.0.copyload.i23, i64 %.sroa.0.0.copyload.i24, i8 noundef zeroext 12, i32 noundef %21, ptr noundef %25, i1 noundef zeroext false) #6
  br label %26

26:                                               ; preds = %18, %3
  %27 = load ptr, ptr %1, align 8
  call void @_ZN9Assembler4cmpqE8Registeri(ptr noundef nonnull align 8 dereferenceable(40) %27, i32 %14, i32 noundef 0) #6
  %28 = load ptr, ptr %1, align 8
  %29 = getelementptr inbounds i8, ptr %2, i64 48
  call void @_ZN9Assembler3jccENS_9ConditionER5Labelb(ptr noundef nonnull align 8 dereferenceable(40) %28, i32 noundef 4, ptr noundef nonnull align 8 dereferenceable(33) %29, i1 noundef zeroext true) #6
  %.sroa.0.0.copyload.i25 = load i64, ptr %13, align 8
  store i64 %.sroa.0.0.copyload.i25, ptr %5, align 8
  %30 = call i32 @_ZNK7LIR_Opr11as_registerEv(ptr noundef nonnull align 8 dereferenceable(8) %5) #6
  call void @_ZN13LIR_Assembler15store_parameterE8Registeri(ptr noundef nonnull align 8 dereferenceable(96) %1, i32 %30, i32 noundef 0) #6
  %31 = load ptr, ptr %1, align 8
  %32 = getelementptr inbounds i8, ptr %10, i64 8
  %33 = load ptr, ptr %32, align 8
  %34 = getelementptr inbounds i8, ptr %33, i64 36
  %35 = load i32, ptr %34, align 4
  %36 = sext i32 %35 to i64
  %37 = getelementptr inbounds i8, ptr %33, i64 %36
  call void @_ZN14AddressLiteralC2EPhN9relocInfo9relocTypeE(ptr noundef nonnull align 8 dereferenceable(56) %7, ptr noundef %37, i32 noundef 6) #6
  %38 = load ptr, ptr %7, align 8
  %39 = getelementptr inbounds i8, ptr %38, i64 16
  %40 = load ptr, ptr %39, align 8
  call void %40(ptr noundef nonnull align 8 dereferenceable(20) %7, ptr noundef nonnull align 8 dereferenceable(40) %6) #6
  %41 = getelementptr inbounds i8, ptr %6, i64 40
  %42 = getelementptr inbounds i8, ptr %7, i64 40
  call void @llvm.memcpy.p0.p0.i64(ptr noundef nonnull align 8 dereferenceable(16) %41, ptr noundef nonnull align 8 dereferenceable(16) %42, i64 16, i1 false)
  call void @_ZN14MacroAssembler4callE14AddressLiteral8Register(ptr noundef nonnull align 8 dereferenceable(40) %31, ptr noundef nonnull %6, i32 0) #6
  %43 = load ptr, ptr %1, align 8
  call void @_ZN9Assembler3jmpER5Labelb(ptr noundef nonnull align 8 dereferenceable(40) %43, ptr noundef nonnull align 8 dereferenceable(33) %29, i1 noundef zeroext true) #6
  ret void
}